target datalayout = "e-m:e-p270:32:32-p271:32:32-p272:64:64-i64:64-i128:128-f80:128-n8:16:32:64-S128"
target triple = "x86_64-pc-linux-gnu"

; Function Attrs: mustprogress nounwind uwtable
define noundef i32 @_ZN6icu_7716BytesTrieBuilder19internalEncodeDeltaEiPc(i32 noundef %0, ptr noundef %1) #0 align 2 {
  %3 = alloca i32, align 4
  %4 = alloca i32, align 4
  %5 = alloca ptr, align 8
  %6 = alloca i32, align 4
  store i32 %0, ptr %4, align 4, !tbaa !14
  store ptr %1, ptr %5, align 8, !tbaa !17
  %7 = load i32, ptr %4, align 4, !tbaa !14
  %8 = icmp sle i32 %7, 191
  br i1 %8, label %9, label %14

9:                                                ; preds = %2
  %10 = load i32, ptr %4, align 4, !tbaa !14
  %11 = trunc i32 %10 to i8
  %12 = load ptr, ptr %5, align 8, !tbaa !17
  %13 = getelementptr inbounds i8, ptr %12, i64 0
  store i8 %11, ptr %13, align 1, !tbaa !52
  store i32 1, ptr %3, align 4
  br label %75

14:                                               ; preds = %2
  call void @llvm.lifetime.start.p0(i64 4, ptr %6) #12
  store i32 1, ptr %6, align 4, !tbaa !14
  %15 = load i32, ptr %4, align 4, !tbaa !14
  %16 = icmp sle i32 %15, 12287
  br i1 %16, label %17, label %24

17:                                               ; preds = %14
  %18 = load i32, ptr %4, align 4, !tbaa !14
  %19 = ashr i32 %18, 8
  %20 = add nsw i32 192, %19
  %21 = trunc i32 %20 to i8
  %22 = load ptr, ptr %5, align 8, !tbaa !17
  %23 = getelementptr inbounds i8, ptr %22, i64 0
  store i8 %21, ptr %23, align 1, !tbaa !52
  br label %66

24:                                               ; preds = %14
  %25 = load i32, ptr %4, align 4, !tbaa !14
  %26 = icmp sle i32 %25, 917503
  br i1 %26, label %27, label %34

27:                                               ; preds = %24
  %28 = load i32, ptr %4, align 4, !tbaa !14
  %29 = ashr i32 %28, 16
  %30 = add nsw i32 240, %29
  %31 = trunc i32 %30 to i8
  %32 = load ptr, ptr %5, align 8, !tbaa !17
  %33 = getelementptr inbounds i8, ptr %32, i64 0
  store i8 %31, ptr %33, align 1, !tbaa !52
  br label %57

34:                                               ; preds = %24
  %35 = load i32, ptr %4, align 4, !tbaa !14
  %36 = icmp sle i32 %35, 16777215
  br i1 %36, label %37, label %40

37:                                               ; preds = %34
  %38 = load ptr, ptr %5, align 8, !tbaa !17
  %39 = getelementptr inbounds i8, ptr %38, i64 0
  store i8 -2, ptr %39, align 1, !tbaa !52
  br label %48

40:                                               ; preds = %34
  %41 = load ptr, ptr %5, align 8, !tbaa !17
  %42 = getelementptr inbounds i8, ptr %41, i64 0
  store i8 -1, ptr %42, align 1, !tbaa !52
  %43 = load i32, ptr %4, align 4, !tbaa !14
  %44 = ashr i32 %43, 24
  %45 = trunc i32 %44 to i8
  %46 = load ptr, ptr %5, align 8, !tbaa !17
  %47 = getelementptr inbounds i8, ptr %46, i64 1
  store i8 %45, ptr %47, align 1, !tbaa !52
  store i32 2, ptr %6, align 4, !tbaa !14
  br label %48

48:                                               ; preds = %40, %37
  %49 = load i32, ptr %4, align 4, !tbaa !14
  %50 = ashr i32 %49, 16
  %51 = trunc i32 %50 to i8
  %52 = load ptr, ptr %5, align 8, !tbaa !17
  %53 = load i32, ptr %6, align 4, !tbaa !14
  %54 = add nsw i32 %53, 1
  store i32 %54, ptr %6, align 4, !tbaa !14
  %55 = sext i32 %53 to i64
  %56 = getelementptr inbounds i8, ptr %52, i64 %55
  store i8 %51, ptr %56, align 1, !tbaa !52
  br label %57

57:                                               ; preds = %48, %27
  %58 = load i32, ptr %4, align 4, !tbaa !14
  %59 = ashr i32 %58, 8
  %60 = trunc i32 %59 to i8
  %61 = load ptr, ptr %5, align 8, !tbaa !17
  %62 = load i32, ptr %6, align 4, !tbaa !14
  %63 = add nsw i32 %62, 1
  store i32 %63, ptr %6, align 4, !tbaa !14
  %64 = sext i32 %62 to i64
  %65 = getelementptr inbounds i8, ptr %61, i64 %64
  store i8 %60, ptr %65, align 1, !tbaa !52
  br label %66

66:                                               ; preds = %57, %17
  %67 = load i32, ptr %4, align 4, !tbaa !14
  %68 = trunc i32 %67 to i8
  %69 = load ptr, ptr %5, align 8, !tbaa !17
  %70 = load i32, ptr %6, align 4, !tbaa !14
  %71 = add nsw i32 %70, 1
  store i32 %71, ptr %6, align 4, !tbaa !14
  %72 = sext i32 %70 to i64
  %73 = getelementptr inbounds i8, ptr %69, i64 %72
  store i8 %68, ptr %73, align 1, !tbaa !52
  %74 = load i32, ptr %6, align 4, !tbaa !14
  store i32 %74, ptr %3, align 4
  call void @llvm.lifetime.end.p0(i64 4, ptr %6) #12
  br label %75

75:                                               ; preds = %66, %9
  %76 = load i32, ptr %3, align 4
  ret i32 %76
}