; Function Attrs: mustprogress nofree norecurse nosync nounwind willreturn memory(argmem: write) uwtable
define noundef range(i32 1, 6) i32 @_ZN6icu_7716BytesTrieBuilder19internalEncodeDeltaEiPc(i32 noundef %0, ptr noundef writeonly captures(none) initializes((0, 1)) %1) local_unnamed_addr #15 align 2 {
  %3 = icmp slt i32 %0, 192
  br i1 %3, label %4, label %6

4:                                                ; preds = %2
  %5 = trunc i32 %0 to i8
  store i8 %5, ptr %1, align 1, !tbaa !20
  br label %41

6:                                                ; preds = %2
  %7 = icmp samesign ult i32 %0, 12288
  br i1 %7, label %8, label %12

8:                                                ; preds = %6
  %9 = lshr i32 %0, 8
  %10 = trunc nuw i32 %9 to i8
  %11 = or disjoint i8 %10, -64
  store i8 %11, ptr %1, align 1, !tbaa !20
  br label %36

12:                                               ; preds = %6
  %13 = icmp samesign ult i32 %0, 917504
  br i1 %13, label %14, label %18

14:                                               ; preds = %12
  %15 = lshr i32 %0, 16
  %16 = trunc nuw i32 %15 to i8
  %17 = or disjoint i8 %16, -16
  store i8 %17, ptr %1, align 1, !tbaa !20
  br label %30

18:                                               ; preds = %12
  %19 = icmp samesign ult i32 %0, 16777216
  br i1 %19, label %24, label %20

20:                                               ; preds = %18
  %21 = lshr i32 %0, 24
  %22 = trunc nuw i32 %21 to i8
  %23 = getelementptr inbounds nuw i8, ptr %1, i64 1
  store i8 %22, ptr %23, align 1, !tbaa !20
  br label %24

24:                                               ; preds = %18, %20
  %.sink = phi i8 [ -1, %20 ], [ -2, %18 ]
  %.2 = phi i32 [ 2, %20 ], [ 1, %18 ]
  store i8 %.sink, ptr %1, align 1, !tbaa !20
  %25 = lshr i32 %0, 16
  %26 = trunc i32 %25 to i8
  %27 = add nuw nsw i32 %.2, 1
  %28 = zext nneg i32 %.2 to i64
  %29 = getelementptr inbounds nuw i8, ptr %1, i64 %28
  store i8 %26, ptr %29, align 1, !tbaa !20
  br label %30

30:                                               ; preds = %24, %14
  %.1 = phi i32 [ 1, %14 ], [ %27, %24 ]
  %31 = lshr i32 %0, 8
  %32 = trunc i32 %31 to i8
  %33 = add nuw nsw i32 %.1, 1
  %34 = zext nneg i32 %.1 to i64
  %35 = getelementptr inbounds nuw i8, ptr %1, i64 %34
  store i8 %32, ptr %35, align 1, !tbaa !20
  br label %36

36:                                               ; preds = %30, %8
  %.0 = phi i32 [ 1, %8 ], [ %33, %30 ]
  %37 = trunc i32 %0 to i8
  %38 = add nuw nsw i32 %.0, 1
  %39 = zext nneg i32 %.0 to i64
  %40 = getelementptr inbounds nuw i8, ptr %1, i64 %39
  store i8 %37, ptr %40, align 1, !tbaa !20
  br label %41

41:                                               ; preds = %36, %4
  %.024 = phi i32 [ 1, %4 ], [ %38, %36 ]
  ret i32 %.024
}